target datalayout = "e-m:e-p270:32:32-p271:32:32-p272:64:64-i64:64-i128:128-f80:128-n8:16:32:64-S128"
target triple = "x86_64-pc-linux-gnu"

@hf_infiniband_reserved = internal global i32 0, align 4
@hf_infiniband_SA = internal global i32 0, align 4
@hf_infiniband_InformInfo_GID = internal global i32 0, align 4
@hf_infiniband_InformInfo_LIDRangeBegin = internal global i32 0, align 4
@hf_infiniband_InformInfo_LIDRangeEnd = internal global i32 0, align 4
@hf_infiniband_InformInfo_IsGeneric = internal global i32 0, align 4
@hf_infiniband_InformInfo_Subscribe = internal global i32 0, align 4
@hf_infiniband_InformInfo_Type = internal global i32 0, align 4
@hf_infiniband_InformInfo_TrapNumberDeviceID = internal global i32 0, align 4
@hf_infiniband_InformInfo_QPN = internal global i32 0, align 4
@hf_infiniband_InformInfo_RespTimeValue = internal global i32 0, align 4
@hf_infiniband_InformInfo_ProducerTypeVendorID = internal global i32 0, align 4
@ett_informinfo = internal global i32 0, align 4
@.str.1230 = private unnamed_addr constant [3 x i8] c"%s\00", align 1
@.str.1534 = private unnamed_addr constant [11 x i8] c"InformInfo\00", align 1

; Function Attrs: null_pointer_is_valid sspstrong uwtable
define internal i32 @parse_InformInfo(ptr noundef %0, ptr noundef %1, ptr noundef %2) #0 {
  %4 = alloca i32, align 4
  %5 = alloca ptr, align 8
  %6 = alloca ptr, align 8
  %7 = alloca ptr, align 8
  %8 = alloca i32, align 4
  %9 = alloca ptr, align 8
  %10 = alloca ptr, align 8
  %11 = alloca i32, align 4
  store ptr %0, ptr %5, align 8
  store ptr %1, ptr %6, align 8
  store ptr %2, ptr %7, align 8
  call void @llvm.lifetime.start.p0(i64 4, ptr %8) #18
  %12 = load ptr, ptr %7, align 8
  %13 = load i32, ptr %12, align 4
  store i32 %13, ptr %8, align 4
  call void @llvm.lifetime.start.p0(i64 8, ptr %9) #18
  call void @llvm.lifetime.start.p0(i64 8, ptr %10) #18
  %14 = load ptr, ptr %5, align 8
  %15 = icmp ne ptr %14, null
  br i1 %15, label %19, label %16

16:                                               ; preds = %3
  %17 = load ptr, ptr %7, align 8
  %18 = load i32, ptr %17, align 4
  store i32 %18, ptr %4, align 4
  store i32 1, ptr %11, align 4
  br label %114

19:                                               ; preds = %3
  %20 = load ptr, ptr %5, align 8
  %21 = load i32, ptr @hf_infiniband_SA, align 4
  %22 = load ptr, ptr %6, align 8
  %23 = load i32, ptr %8, align 4
  %24 = call ptr @proto_tree_add_item(ptr noundef %20, i32 noundef %21, ptr noundef %22, i32 noundef %23, i32 noundef 36, i32 noundef 0)
  store ptr %24, ptr %9, align 8
  %25 = load ptr, ptr %9, align 8
  call void (ptr, ptr, ...) @proto_item_set_text(ptr noundef %25, ptr noundef @.str.1230, ptr noundef @.str.1534)
  %26 = load ptr, ptr %9, align 8
  %27 = load i32, ptr @ett_informinfo, align 4
  %28 = call ptr @proto_item_add_subtree(ptr noundef %26, i32 noundef %27)
  store ptr %28, ptr %10, align 8
  %29 = load ptr, ptr %10, align 8
  %30 = load i32, ptr @hf_infiniband_InformInfo_GID, align 4
  %31 = load ptr, ptr %6, align 8
  %32 = load i32, ptr %8, align 4
  %33 = call ptr @proto_tree_add_item(ptr noundef %29, i32 noundef %30, ptr noundef %31, i32 noundef %32, i32 noundef 16, i32 noundef 0)
  %34 = load i32, ptr %8, align 4
  %35 = add i32 %34, 16
  store i32 %35, ptr %8, align 4
  %36 = load ptr, ptr %10, align 8
  %37 = load i32, ptr @hf_infiniband_InformInfo_LIDRangeBegin, align 4
  %38 = load ptr, ptr %6, align 8
  %39 = load i32, ptr %8, align 4
  %40 = call ptr @proto_tree_add_item(ptr noundef %36, i32 noundef %37, ptr noundef %38, i32 noundef %39, i32 noundef 2, i32 noundef 0)
  %41 = load i32, ptr %8, align 4
  %42 = add i32 %41, 2
  store i32 %42, ptr %8, align 4
  %43 = load ptr, ptr %10, align 8
  %44 = load i32, ptr @hf_infiniband_InformInfo_LIDRangeEnd, align 4
  %45 = load ptr, ptr %6, align 8
  %46 = load i32, ptr %8, align 4
  %47 = call ptr @proto_tree_add_item(ptr noundef %43, i32 noundef %44, ptr noundef %45, i32 noundef %46, i32 noundef 2, i32 noundef 0)
  %48 = load i32, ptr %8, align 4
  %49 = add i32 %48, 2
  store i32 %49, ptr %8, align 4
  %50 = load ptr, ptr %10, align 8
  %51 = load i32, ptr @hf_infiniband_reserved, align 4
  %52 = load ptr, ptr %6, align 8
  %53 = load i32, ptr %8, align 4
  %54 = call ptr @proto_tree_add_item(ptr noundef %50, i32 noundef %51, ptr noundef %52, i32 noundef %53, i32 noundef 2, i32 noundef 0)
  %55 = load i32, ptr %8, align 4
  %56 = add i32 %55, 2
  store i32 %56, ptr %8, align 4
  %57 = load ptr, ptr %10, align 8
  %58 = load i32, ptr @hf_infiniband_InformInfo_IsGeneric, align 4
  %59 = load ptr, ptr %6, align 8
  %60 = load i32, ptr %8, align 4
  %61 = call ptr @proto_tree_add_item(ptr noundef %57, i32 noundef %58, ptr noundef %59, i32 noundef %60, i32 noundef 1, i32 noundef 0)
  %62 = load i32, ptr %8, align 4
  %63 = add i32 %62, 1
  store i32 %63, ptr %8, align 4
  %64 = load ptr, ptr %10, align 8
  %65 = load i32, ptr @hf_infiniband_InformInfo_Subscribe, align 4
  %66 = load ptr, ptr %6, align 8
  %67 = load i32, ptr %8, align 4
  %68 = call ptr @proto_tree_add_item(ptr noundef %64, i32 noundef %65, ptr noundef %66, i32 noundef %67, i32 noundef 1, i32 noundef 0)
  %69 = load i32, ptr %8, align 4
  %70 = add i32 %69, 1
  store i32 %70, ptr %8, align 4
  %71 = load ptr, ptr %10, align 8
  %72 = load i32, ptr @hf_infiniband_InformInfo_Type, align 4
  %73 = load ptr, ptr %6, align 8
  %74 = load i32, ptr %8, align 4
  %75 = call ptr @proto_tree_add_item(ptr noundef %71, i32 noundef %72, ptr noundef %73, i32 noundef %74, i32 noundef 2, i32 noundef 0)
  %76 = load i32, ptr %8, align 4
  %77 = add i32 %76, 2
  store i32 %77, ptr %8, align 4
  %78 = load ptr, ptr %10, align 8
  %79 = load i32, ptr @hf_infiniband_InformInfo_TrapNumberDeviceID, align 4
  %80 = load ptr, ptr %6, align 8
  %81 = load i32, ptr %8, align 4
  %82 = call ptr @proto_tree_add_item(ptr noundef %78, i32 noundef %79, ptr noundef %80, i32 noundef %81, i32 noundef 2, i32 noundef 0)
  %83 = load i32, ptr %8, align 4
  %84 = add i32 %83, 2
  store i32 %84, ptr %8, align 4
  %85 = load ptr, ptr %10, align 8
  %86 = load i32, ptr @hf_infiniband_InformInfo_QPN, align 4
  %87 = load ptr, ptr %6, align 8
  %88 = load i32, ptr %8, align 4
  %89 = call ptr @proto_tree_add_item(ptr noundef %85, i32 noundef %86, ptr noundef %87, i32 noundef %88, i32 noundef 3, i32 noundef 0)
  %90 = load i32, ptr %8, align 4
  %91 = add i32 %90, 3
  store i32 %91, ptr %8, align 4
  %92 = load ptr, ptr %10, align 8
  %93 = load i32, ptr @hf_infiniband_InformInfo_RespTimeValue, align 4
  %94 = load ptr, ptr %6, align 8
  %95 = load i32, ptr %8, align 4
  %96 = call ptr @proto_tree_add_item(ptr noundef %92, i32 noundef %93, ptr noundef %94, i32 noundef %95, i32 noundef 1, i32 noundef 0)
  %97 = load i32, ptr %8, align 4
  %98 = add i32 %97, 1
  store i32 %98, ptr %8, align 4
  %99 = load ptr, ptr %10, align 8
  %100 = load i32, ptr @hf_infiniband_reserved, align 4
  %101 = load ptr, ptr %6, align 8
  %102 = load i32, ptr %8, align 4
  %103 = call ptr @proto_tree_add_item(ptr noundef %99, i32 noundef %100, ptr noundef %101, i32 noundef %102, i32 noundef 1, i32 noundef 0)
  %104 = load i32, ptr %8, align 4
  %105 = add i32 %104, 1
  store i32 %105, ptr %8, align 4
  %106 = load ptr, ptr %10, align 8
  %107 = load i32, ptr @hf_infiniband_InformInfo_ProducerTypeVendorID, align 4
  %108 = load ptr, ptr %6, align 8
  %109 = load i32, ptr %8, align 4
  %110 = call ptr @proto_tree_add_item(ptr noundef %106, i32 noundef %107, ptr noundef %108, i32 noundef %109, i32 noundef 3, i32 noundef 0)
  %111 = load i32, ptr %8, align 4
  %112 = add i32 %111, 3
  store i32 %112, ptr %8, align 4
  %113 = load i32, ptr %8, align 4
  store i32 %113, ptr %4, align 4
  store i32 1, ptr %11, align 4
  br label %114

114:                                              ; preds = %19, %16
  call void @llvm.lifetime.end.p0(i64 8, ptr %10) #18
  call void @llvm.lifetime.end.p0(i64 8, ptr %9) #18
  call void @llvm.lifetime.end.p0(i64 4, ptr %8) #18
  %115 = load i32, ptr %4, align 4
  ret i32 %115
}