; Function Attrs: null_pointer_is_valid sspstrong uwtable
define internal fastcc void @parse_InformInfo(ptr noundef %0, ptr noundef %1, i32 %.0.val) unnamed_addr #0 {
  %.not = icmp eq ptr %0, null
  br i1 %.not, label %43, label %3

3:                                                ; preds = %2
  %4 = load i32, ptr @hf_infiniband_SA, align 4
  %5 = tail call ptr @proto_tree_add_item(ptr noundef nonnull %0, i32 noundef %4, ptr noundef %1, i32 noundef %.0.val, i32 noundef 36, i32 noundef 0)
  tail call void (ptr, ptr, ...) @proto_item_set_text(ptr noundef %5, ptr noundef nonnull @.str.1230, ptr noundef nonnull @.str.1534)
  %6 = load i32, ptr @ett_informinfo, align 4
  %7 = tail call ptr @proto_item_add_subtree(ptr noundef %5, i32 noundef %6)
  %8 = load i32, ptr @hf_infiniband_InformInfo_GID, align 4
  %9 = tail call ptr @proto_tree_add_item(ptr noundef %7, i32 noundef %8, ptr noundef %1, i32 noundef %.0.val, i32 noundef 16, i32 noundef 0)
  %10 = add i32 %.0.val, 16
  %11 = load i32, ptr @hf_infiniband_InformInfo_LIDRangeBegin, align 4
  %12 = tail call ptr @proto_tree_add_item(ptr noundef %7, i32 noundef %11, ptr noundef %1, i32 noundef %10, i32 noundef 2, i32 noundef 0)
  %13 = add i32 %.0.val, 18
  %14 = load i32, ptr @hf_infiniband_InformInfo_LIDRangeEnd, align 4
  %15 = tail call ptr @proto_tree_add_item(ptr noundef %7, i32 noundef %14, ptr noundef %1, i32 noundef %13, i32 noundef 2, i32 noundef 0)
  %16 = add i32 %.0.val, 20
  %17 = load i32, ptr @hf_infiniband_reserved, align 4
  %18 = tail call ptr @proto_tree_add_item(ptr noundef %7, i32 noundef %17, ptr noundef %1, i32 noundef %16, i32 noundef 2, i32 noundef 0)
  %19 = add i32 %.0.val, 22
  %20 = load i32, ptr @hf_infiniband_InformInfo_IsGeneric, align 4
  %21 = tail call ptr @proto_tree_add_item(ptr noundef %7, i32 noundef %20, ptr noundef %1, i32 noundef %19, i32 noundef 1, i32 noundef 0)
  %22 = add i32 %.0.val, 23
  %23 = load i32, ptr @hf_infiniband_InformInfo_Subscribe, align 4
  %24 = tail call ptr @proto_tree_add_item(ptr noundef %7, i32 noundef %23, ptr noundef %1, i32 noundef %22, i32 noundef 1, i32 noundef 0)
  %25 = add i32 %.0.val, 24
  %26 = load i32, ptr @hf_infiniband_InformInfo_Type, align 4
  %27 = tail call ptr @proto_tree_add_item(ptr noundef %7, i32 noundef %26, ptr noundef %1, i32 noundef %25, i32 noundef 2, i32 noundef 0)
  %28 = add i32 %.0.val, 26
  %29 = load i32, ptr @hf_infiniband_InformInfo_TrapNumberDeviceID, align 4
  %30 = tail call ptr @proto_tree_add_item(ptr noundef %7, i32 noundef %29, ptr noundef %1, i32 noundef %28, i32 noundef 2, i32 noundef 0)
  %31 = add i32 %.0.val, 28
  %32 = load i32, ptr @hf_infiniband_InformInfo_QPN, align 4
  %33 = tail call ptr @proto_tree_add_item(ptr noundef %7, i32 noundef %32, ptr noundef %1, i32 noundef %31, i32 noundef 3, i32 noundef 0)
  %34 = add i32 %.0.val, 31
  %35 = load i32, ptr @hf_infiniband_InformInfo_RespTimeValue, align 4
  %36 = tail call ptr @proto_tree_add_item(ptr noundef %7, i32 noundef %35, ptr noundef %1, i32 noundef %34, i32 noundef 1, i32 noundef 0)
  %37 = add i32 %.0.val, 32
  %38 = load i32, ptr @hf_infiniband_reserved, align 4
  %39 = tail call ptr @proto_tree_add_item(ptr noundef %7, i32 noundef %38, ptr noundef %1, i32 noundef %37, i32 noundef 1, i32 noundef 0)
  %40 = add i32 %.0.val, 33
  %41 = load i32, ptr @hf_infiniband_InformInfo_ProducerTypeVendorID, align 4
  %42 = tail call ptr @proto_tree_add_item(ptr noundef %7, i32 noundef %41, ptr noundef %1, i32 noundef %40, i32 noundef 3, i32 noundef 0)
  br label %43

43:                                               ; preds = %2, %3
  ret void
}